target datalayout = "e-m:e-p270:32:32-p271:32:32-p272:64:64-i64:64-i128:128-f80:128-n8:16:32:64-S128"
target triple = "x86_64-unknown-linux-gnu"

%struct.grpc_channel_filter = type { ptr, ptr, ptr, ptr, i64, ptr, ptr, ptr, i64, ptr, ptr, ptr, ptr, ptr }
%struct.grpc_channel_element = type { ptr, ptr }
%"class.absl::lts_20230802::MutexLock" = type { ptr }
%"class.grpc_core::ClientChannel" = type { %"class.grpc_core::ChannelArgs", i8, ptr, ptr, %"class.grpc_core::RefCountedPtr.0", %"class.std::__cxx11::basic_string", %"class.std::__cxx11::basic_string", ptr, ptr, i64, %"class.absl::lts_20230802::Mutex", %"class.absl::lts_20230802::flat_hash_set", %"class.absl::lts_20230802::Status", i8, %"class.grpc_core::RefCountedPtr.0", %"class.grpc_core::RefCountedPtr.13", %"class.grpc_core::RefCountedPtr.14", %"class.absl::lts_20230802::Mutex", %"class.grpc_core::RefCountedPtr.15", %"class.absl::lts_20230802::flat_hash_set.16", %"class.std::shared_ptr", %"class.grpc_core::ConnectivityStateTracker", %"class.std::unique_ptr", i8, %"class.grpc_core::RefCountedPtr.0", %"class.grpc_core::RefCountedPtr.13", %"class.std::unique_ptr.32", %"class.grpc_core::RefCountedPtr.38", %"class.std::map.39", %"class.absl::lts_20230802::flat_hash_set.47", i32, %"class.absl::lts_20230802::Status", %"class.absl::lts_20230802::Mutex", %"class.std::__cxx11::basic_string", %"class.std::__cxx11::basic_string", %"class.absl::lts_20230802::Mutex", %"class.std::map.57" }
%"class.grpc_core::ChannelArgs" = type { %"class.grpc_core::AVL" }
%"class.grpc_core::AVL" = type { %"class.grpc_core::RefCountedPtr" }
%"class.grpc_core::RefCountedPtr" = type { ptr }
%"class.absl::lts_20230802::flat_hash_set" = type { %"class.absl::lts_20230802::container_internal::raw_hash_set" }
%"class.absl::lts_20230802::container_internal::raw_hash_set" = type { %"class.absl::lts_20230802::container_internal::CompressedTuple" }
%"class.absl::lts_20230802::container_internal::CompressedTuple" = type { %"struct.absl::lts_20230802::container_internal::internal_compressed_tuple::CompressedTupleImpl" }
%"struct.absl::lts_20230802::container_internal::internal_compressed_tuple::CompressedTupleImpl" = type { %"struct.absl::lts_20230802::container_internal::internal_compressed_tuple::Storage" }
%"struct.absl::lts_20230802::container_internal::internal_compressed_tuple::Storage" = type { %"class.absl::lts_20230802::container_internal::CommonFields" }
%"class.absl::lts_20230802::container_internal::CommonFields" = type { ptr, ptr, i64, %"class.absl::lts_20230802::container_internal::CompressedTuple.3" }
%"class.absl::lts_20230802::container_internal::CompressedTuple.3" = type { %"struct.absl::lts_20230802::container_internal::internal_compressed_tuple::CompressedTupleImpl.4" }
%"struct.absl::lts_20230802::container_internal::internal_compressed_tuple::CompressedTupleImpl.4" = type { %"struct.absl::lts_20230802::container_internal::internal_compressed_tuple::Storage.5" }
%"struct.absl::lts_20230802::container_internal::internal_compressed_tuple::Storage.5" = type { i64 }
%"class.grpc_core::RefCountedPtr.14" = type { ptr }
%"class.grpc_core::RefCountedPtr.15" = type { ptr }
%"class.absl::lts_20230802::flat_hash_set.16" = type { %"class.absl::lts_20230802::container_internal::raw_hash_set.17" }
%"class.absl::lts_20230802::container_internal::raw_hash_set.17" = type { %"class.absl::lts_20230802::container_internal::CompressedTuple.18" }
%"class.absl::lts_20230802::container_internal::CompressedTuple.18" = type { %"struct.absl::lts_20230802::container_internal::internal_compressed_tuple::CompressedTupleImpl.19" }
%"struct.absl::lts_20230802::container_internal::internal_compressed_tuple::CompressedTupleImpl.19" = type { %"struct.absl::lts_20230802::container_internal::internal_compressed_tuple::Storage" }
%"class.std::shared_ptr" = type { %"class.std::__shared_ptr" }
%"class.std::__shared_ptr" = type { ptr, %"class.std::__shared_count" }
%"class.std::__shared_count" = type { ptr }
%"class.grpc_core::ConnectivityStateTracker" = type { ptr, %"struct.std::atomic.26", %"class.absl::lts_20230802::Status", %"class.std::map" }
%"struct.std::atomic.26" = type { i32 }
%"class.std::map" = type { %"class.std::_Rb_tree" }
%"class.std::_Rb_tree" = type { %"struct.std::_Rb_tree<grpc_core::ConnectivityStateWatcherInterface *, std::pair<grpc_core::ConnectivityStateWatcherInterface *const, std::unique_ptr<grpc_core::ConnectivityStateWatcherInterface, grpc_core::OrphanableDelete>>, std::_Select1st<std::pair<grpc_core::ConnectivityStateWatcherInterface *const, std::unique_ptr<grpc_core::ConnectivityStateWatcherInterface, grpc_core::OrphanableDelete>>>, std::less<grpc_core::ConnectivityStateWatcherInterface *>>::_Rb_tree_impl" }
%"struct.std::_Rb_tree<grpc_core::ConnectivityStateWatcherInterface *, std::pair<grpc_core::ConnectivityStateWatcherInterface *const, std::unique_ptr<grpc_core::ConnectivityStateWatcherInterface, grpc_core::OrphanableDelete>>, std::_Select1st<std::pair<grpc_core::ConnectivityStateWatcherInterface *const, std::unique_ptr<grpc_core::ConnectivityStateWatcherInterface, grpc_core::OrphanableDelete>>>, std::less<grpc_core::ConnectivityStateWatcherInterface *>>::_Rb_tree_impl" = type { %"struct.std::_Rb_tree_key_compare", %"struct.std::_Rb_tree_header" }
%"struct.std::_Rb_tree_key_compare" = type { %"struct.std::less" }
%"struct.std::less" = type { i8 }
%"struct.std::_Rb_tree_header" = type { %"struct.std::_Rb_tree_node_base", i64 }
%"struct.std::_Rb_tree_node_base" = type { i32, ptr, ptr, ptr }
%"class.std::unique_ptr" = type { %"struct.std::__uniq_ptr_data" }
%"struct.std::__uniq_ptr_data" = type { %"class.std::__uniq_ptr_impl" }
%"class.std::__uniq_ptr_impl" = type { %"class.std::tuple" }
%"class.std::tuple" = type { %"struct.std::_Tuple_impl" }
%"struct.std::_Tuple_impl" = type { %"struct.std::_Head_base.31" }
%"struct.std::_Head_base.31" = type { ptr }
%"class.grpc_core::RefCountedPtr.0" = type { ptr }
%"class.grpc_core::RefCountedPtr.13" = type { ptr }
%"class.std::unique_ptr.32" = type { %"struct.std::__uniq_ptr_data.33" }
%"struct.std::__uniq_ptr_data.33" = type { %"class.std::__uniq_ptr_impl.34" }
%"class.std::__uniq_ptr_impl.34" = type { %"class.std::tuple.35" }
%"class.std::tuple.35" = type { %"struct.std::_Tuple_impl.36" }
%"struct.std::_Tuple_impl.36" = type { %"struct.std::_Head_base.37" }
%"struct.std::_Head_base.37" = type { ptr }
%"class.grpc_core::RefCountedPtr.38" = type { ptr }
%"class.std::map.39" = type { %"class.std::_Rb_tree.40" }
%"class.std::_Rb_tree.40" = type { %"struct.std::_Rb_tree<grpc_core::Subchannel *, std::pair<grpc_core::Subchannel *const, int>, std::_Select1st<std::pair<grpc_core::Subchannel *const, int>>, std::less<grpc_core::Subchannel *>>::_Rb_tree_impl" }
%"struct.std::_Rb_tree<grpc_core::Subchannel *, std::pair<grpc_core::Subchannel *const, int>, std::_Select1st<std::pair<grpc_core::Subchannel *const, int>>, std::less<grpc_core::Subchannel *>>::_Rb_tree_impl" = type { %"struct.std::_Rb_tree_key_compare.44", %"struct.std::_Rb_tree_header" }
%"struct.std::_Rb_tree_key_compare.44" = type { %"struct.std::less.45" }
%"struct.std::less.45" = type { i8 }
%"class.absl::lts_20230802::flat_hash_set.47" = type { %"class.absl::lts_20230802::container_internal::raw_hash_set.48" }
%"class.absl::lts_20230802::container_internal::raw_hash_set.48" = type { %"class.absl::lts_20230802::container_internal::CompressedTuple.49" }
%"class.absl::lts_20230802::container_internal::CompressedTuple.49" = type { %"struct.absl::lts_20230802::container_internal::internal_compressed_tuple::CompressedTupleImpl.50" }
%"struct.absl::lts_20230802::container_internal::internal_compressed_tuple::CompressedTupleImpl.50" = type { %"struct.absl::lts_20230802::container_internal::internal_compressed_tuple::Storage" }
%"class.absl::lts_20230802::Status" = type { i64 }
%"class.std::__cxx11::basic_string" = type { %"struct.std::__cxx11::basic_string<char>::_Alloc_hider", i64, %union.anon }
%"struct.std::__cxx11::basic_string<char>::_Alloc_hider" = type { ptr }
%union.anon = type { i64, [8 x i8] }
%"class.absl::lts_20230802::Mutex" = type { %"struct.std::atomic.1" }
%"struct.std::atomic.1" = type { %"struct.std::__atomic_base.2" }
%"struct.std::__atomic_base.2" = type { i64 }
%"class.std::map.57" = type { %"class.std::_Rb_tree.58" }
%"class.std::_Rb_tree.58" = type { %"struct.std::_Rb_tree<grpc_closure *, std::pair<grpc_closure *const, grpc_core::RefCountedPtr<grpc_core::ClientChannel::ExternalConnectivityWatcher>>, std::_Select1st<std::pair<grpc_closure *const, grpc_core::RefCountedPtr<grpc_core::ClientChannel::ExternalConnectivityWatcher>>>, std::less<grpc_closure *>>::_Rb_tree_impl" }
%"struct.std::_Rb_tree<grpc_closure *, std::pair<grpc_closure *const, grpc_core::RefCountedPtr<grpc_core::ClientChannel::ExternalConnectivityWatcher>>, std::_Select1st<std::pair<grpc_closure *const, grpc_core::RefCountedPtr<grpc_core::ClientChannel::ExternalConnectivityWatcher>>>, std::less<grpc_closure *>>::_Rb_tree_impl" = type { %"struct.std::_Rb_tree_key_compare.62", %"struct.std::_Rb_tree_header" }
%"struct.std::_Rb_tree_key_compare.62" = type { %"struct.std::less.63" }
%"struct.std::less.63" = type { i8 }
%"struct.std::atomic.65" = type { %"struct.std::__atomic_base.66" }
%"struct.std::__atomic_base.66" = type { i64 }
%"class.grpc_core::Channel" = type { %"class.grpc_core::RefCounted", i8, i8, %struct.grpc_compression_options, %"struct.std::atomic.65", %"struct.grpc_core::CallRegistrationTable", %"class.grpc_core::RefCountedPtr.86", %"class.grpc_event_engine::experimental::MemoryAllocator", %"class.std::__cxx11::basic_string", %"class.grpc_core::RefCountedPtr.90" }
%"class.grpc_core::RefCounted" = type { %"class.grpc_core::PolymorphicRefCount", %"class.grpc_core::RefCount" }
%"class.grpc_core::PolymorphicRefCount" = type { ptr }
%"class.grpc_core::RefCount" = type { %"struct.std::atomic.1" }
%struct.grpc_compression_options = type { i32, %"struct.grpc_compression_options::grpc_compression_options_default_level", %"struct.grpc_compression_options::grpc_compression_options_default_algorithm" }
%"struct.grpc_compression_options::grpc_compression_options_default_level" = type { i32, i32 }
%"struct.grpc_compression_options::grpc_compression_options_default_algorithm" = type { i32, i32 }
%"struct.grpc_core::CallRegistrationTable" = type <{ %"class.absl::lts_20230802::Mutex", %"class.std::map.78", i32, [4 x i8] }>
%"class.std::map.78" = type { %"class.std::_Rb_tree.79" }
%"class.std::_Rb_tree.79" = type { %"struct.std::_Rb_tree<std::pair<std::__cxx11::basic_string<char>, std::__cxx11::basic_string<char>>, std::pair<const std::pair<std::__cxx11::basic_string<char>, std::__cxx11::basic_string<char>>, grpc_core::RegisteredCall>, std::_Select1st<std::pair<const std::pair<std::__cxx11::basic_string<char>, std::__cxx11::basic_string<char>>, grpc_core::RegisteredCall>>, std::less<std::pair<std::__cxx11::basic_string<char>, std::__cxx11::basic_string<char>>>>::_Rb_tree_impl" }
%"struct.std::_Rb_tree<std::pair<std::__cxx11::basic_string<char>, std::__cxx11::basic_string<char>>, std::pair<const std::pair<std::__cxx11::basic_string<char>, std::__cxx11::basic_string<char>>, grpc_core::RegisteredCall>, std::_Select1st<std::pair<const std::pair<std::__cxx11::basic_string<char>, std::__cxx11::basic_string<char>>, grpc_core::RegisteredCall>>, std::less<std::pair<std::__cxx11::basic_string<char>, std::__cxx11::basic_string<char>>>>::_Rb_tree_impl" = type { %"struct.std::_Rb_tree_key_compare.83", %"struct.std::_Rb_tree_header" }
%"struct.std::_Rb_tree_key_compare.83" = type { %"struct.std::less.84" }
%"struct.std::less.84" = type { i8 }
%"class.grpc_core::RefCountedPtr.86" = type { ptr }
%"class.grpc_event_engine::experimental::MemoryAllocator" = type { %"class.std::shared_ptr.87" }
%"class.std::shared_ptr.87" = type { %"class.std::__shared_ptr.88" }
%"class.std::__shared_ptr.88" = type { ptr, %"class.std::__shared_count" }
%"class.grpc_core::RefCountedPtr.90" = type { ptr }

@.str = private unnamed_addr constant [147 x i8] c"generated/home/dtcxzyw/WorkSpace/Projects/compilers/llvm-opt-benchmark/bench/grpc/grpc/src/core/ext/filters/client_channel/channel_connectivity.cc\00", align 1
@.str.3 = private unnamed_addr constant [97 x i8] c"grpc_channel_num_external_connectivity_watchers called on something that is not a client channel\00", align 1
@_ZN9grpc_core16LameClientFilter7kFilterE = external global %struct.grpc_channel_filter, align 8

; Function Attrs: mustprogress nounwind uwtable
define linkonce_odr noundef i64 @_ZNKSt8_Rb_treeIP12grpc_closureSt4pairIKS1_N9grpc_core13RefCountedPtrINS4_13ClientChannel27ExternalConnectivityWatcherEEEESt10_Select1stIS9_ESt4lessIS1_ESaIS9_EE4sizeEv(ptr noundef nonnull align 8 dereferenceable(48) %this) #5 comdat align 2 {
entry:
  %this.addr = alloca ptr, align 8
  store ptr %this, ptr %this.addr, align 8
  %this1 = load ptr, ptr %this.addr, align 8
  %_M_impl = getelementptr inbounds %"class.std::_Rb_tree.58", ptr %this1, i32 0, i32 0
  %add.ptr = getelementptr inbounds i8, ptr %_M_impl, i64 8
  %_M_node_count = getelementptr inbounds %"struct.std::_Rb_tree_header", ptr %add.ptr, i32 0, i32 1
  %0 = load i64, ptr %_M_node_count, align 8
  ret i64 %0
}

; Function Attrs: mustprogress nounwind uwtable
define linkonce_odr noundef ptr @_ZNK9grpc_core13RefCountedPtrI18grpc_channel_stackE3getEv(ptr noundef nonnull align 8 dereferenceable(8) %this) #5 comdat align 2 {
entry:
  %this.addr = alloca ptr, align 8
  store ptr %this, ptr %this.addr, align 8
  %this1 = load ptr, ptr %this.addr, align 8
  %value_ = getelementptr inbounds %"class.grpc_core::RefCountedPtr.90", ptr %this1, i32 0, i32 0
  %0 = load ptr, ptr %value_, align 8
  ret ptr %0
}

; Function Attrs: mustprogress nounwind uwtable
define linkonce_odr void @_ZN4absl12lts_202308029MutexLockD2Ev(ptr noundef nonnull align 8 dereferenceable(8) %this) unnamed_addr #5 comdat align 2 personality ptr @__gxx_personality_v0 {
entry:
  %this.addr = alloca ptr, align 8
  store ptr %this, ptr %this.addr, align 8
  %this1 = load ptr, ptr %this.addr, align 8
  %mu_ = getelementptr inbounds %"class.absl::lts_20230802::MutexLock", ptr %this1, i32 0, i32 0
  %0 = load ptr, ptr %mu_, align 8
  invoke void @_ZN4absl12lts_202308025Mutex6UnlockEv(ptr noundef nonnull align 8 dereferenceable(8) %0)
          to label %invoke.cont unwind label %terminate.lpad

invoke.cont:                                      ; preds = %entry
  ret void

terminate.lpad:                                   ; preds = %entry
  %1 = landingpad { ptr, i32 }
          catch ptr null
  %2 = extractvalue { ptr, i32 } %1, 0
  call void @__clang_call_terminate(ptr %2) #16
  unreachable
}

; Function Attrs: mustprogress nounwind uwtable
define linkonce_odr noundef i64 @_ZNKSt3mapIP12grpc_closureN9grpc_core13RefCountedPtrINS2_13ClientChannel27ExternalConnectivityWatcherEEESt4lessIS1_ESaISt4pairIKS1_S6_EEE4sizeEv(ptr noundef nonnull align 8 dereferenceable(48) %this) #5 comdat align 2 {
entry:
  %this.addr = alloca ptr, align 8
  store ptr %this, ptr %this.addr, align 8
  %this1 = load ptr, ptr %this.addr, align 8
  %_M_t = getelementptr inbounds %"class.std::map.57", ptr %this1, i32 0, i32 0
  %call = call noundef i64 @_ZNKSt8_Rb_treeIP12grpc_closureSt4pairIKS1_N9grpc_core13RefCountedPtrINS4_13ClientChannel27ExternalConnectivityWatcherEEEESt10_Select1stIS9_ESt4lessIS1_ESaIS9_EE4sizeEv(ptr noundef nonnull align 8 dereferenceable(48) %_M_t) #3
  ret i64 %call
}

; Function Attrs: mustprogress uwtable
define linkonce_odr void @_ZN4absl12lts_202308029MutexLockC2EPNS0_5MutexE(ptr noundef nonnull align 8 dereferenceable(8) %this, ptr noundef %mu) unnamed_addr #4 comdat align 2 {
entry:
  %this.addr = alloca ptr, align 8
  %mu.addr = alloca ptr, align 8
  store ptr %this, ptr %this.addr, align 8
  store ptr %mu, ptr %mu.addr, align 8
  %this1 = load ptr, ptr %this.addr, align 8
  %mu_ = getelementptr inbounds %"class.absl::lts_20230802::MutexLock", ptr %this1, i32 0, i32 0
  %0 = load ptr, ptr %mu.addr, align 8
  store ptr %0, ptr %mu_, align 8
  %mu_2 = getelementptr inbounds %"class.absl::lts_20230802::MutexLock", ptr %this1, i32 0, i32 0
  %1 = load ptr, ptr %mu_2, align 8
  call void @_ZN4absl12lts_202308025Mutex4LockEv(ptr noundef nonnull align 8 dereferenceable(8) %1)
  ret void
}

; Function Attrs: mustprogress uwtable
define linkonce_odr noundef ptr @_ZNK9grpc_core7Channel13channel_stackEv(ptr noundef nonnull align 8 dereferenceable(176) %this) #4 comdat align 2 {
entry:
  %this.addr = alloca ptr, align 8
  store ptr %this, ptr %this.addr, align 8
  %this1 = load ptr, ptr %this.addr, align 8
  %channel_stack_ = getelementptr inbounds %"class.grpc_core::Channel", ptr %this1, i32 0, i32 9
  %call = call noundef ptr @_ZNK9grpc_core13RefCountedPtrI18grpc_channel_stackE3getEv(ptr noundef nonnull align 8 dereferenceable(8) %channel_stack_)
  ret ptr %call
}

; Function Attrs: mustprogress uwtable
define linkonce_odr noundef i32 @_ZNK9grpc_core13ClientChannel31NumExternalConnectivityWatchersEv(ptr noundef nonnull align 8 dereferenceable(616) %this) #4 comdat align 2 {
entry:
  %this.addr = alloca ptr, align 8
  %lock = alloca %"class.absl::lts_20230802::MutexLock", align 8
  store ptr %this, ptr %this.addr, align 8
  %this1 = load ptr, ptr %this.addr, align 8
  %external_watchers_mu_ = getelementptr inbounds %"class.grpc_core::ClientChannel", ptr %this1, i32 0, i32 35
  call void @_ZN4absl12lts_202308029MutexLockC2EPNS0_5MutexE(ptr noundef nonnull align 8 dereferenceable(8) %lock, ptr noundef %external_watchers_mu_)
  %external_watchers_ = getelementptr inbounds %"class.grpc_core::ClientChannel", ptr %this1, i32 0, i32 36
  %call = call noundef i64 @_ZNKSt3mapIP12grpc_closureN9grpc_core13RefCountedPtrINS2_13ClientChannel27ExternalConnectivityWatcherEEESt4lessIS1_ESaISt4pairIKS1_S6_EEE4sizeEv(ptr noundef nonnull align 8 dereferenceable(48) %external_watchers_) #3
  %conv = trunc i64 %call to i32
  call void @_ZN4absl12lts_202308029MutexLockD2Ev(ptr noundef nonnull align 8 dereferenceable(8) %lock) #3
  ret i32 %conv
}

; Function Attrs: mustprogress uwtable
define internal noundef zeroext i1 @_ZN9grpc_core12_GLOBAL__N_113IsLameChannelEPNS_7ChannelE(ptr noundef %channel) #4 {
entry:
  %channel.addr = alloca ptr, align 8
  %elem = alloca ptr, align 8
  store ptr %channel, ptr %channel.addr, align 8
  %0 = load ptr, ptr %channel.addr, align 8
  %call = call noundef ptr @_ZNK9grpc_core7Channel13channel_stackEv(ptr noundef nonnull align 8 dereferenceable(176) %0)
  %call1 = call noundef ptr @_Z31grpc_channel_stack_last_elementP18grpc_channel_stack(ptr noundef %call)
  store ptr %call1, ptr %elem, align 8
  %1 = load ptr, ptr %elem, align 8
  %filter = getelementptr inbounds %struct.grpc_channel_element, ptr %1, i32 0, i32 0
  %2 = load ptr, ptr %filter, align 8
  %cmp = icmp eq ptr %2, @_ZN9grpc_core16LameClientFilter7kFilterE
  ret i1 %cmp
}

; Function Attrs: mustprogress nounwind uwtable
define linkonce_odr noundef ptr @_ZN9grpc_core9CppImplOfINS_7ChannelE12grpc_channelE5FromCEPS2_(ptr noundef %c_type) #5 comdat align 2 {
entry:
  %c_type.addr = alloca ptr, align 8
  store ptr %c_type, ptr %c_type.addr, align 8
  %0 = load ptr, ptr %c_type.addr, align 8
  ret ptr %0
}

; Function Attrs: mustprogress uwtable
define i32 @grpc_channel_num_external_connectivity_watchers(ptr noundef %c_channel) #4 {
entry:
  %retval = alloca i32, align 4
  %c_channel.addr = alloca ptr, align 8
  %channel = alloca ptr, align 8
  %client_channel = alloca ptr, align 8
  store ptr %c_channel, ptr %c_channel.addr, align 8
  %0 = load ptr, ptr %c_channel.addr, align 8
  %call = call noundef ptr @_ZN9grpc_core9CppImplOfINS_7ChannelE12grpc_channelE5FromCEPS2_(ptr noundef %0)
  store ptr %call, ptr %channel, align 8
  %1 = load ptr, ptr %channel, align 8
  %call1 = call noundef ptr @_ZN9grpc_core13ClientChannel14GetFromChannelEPNS_7ChannelE(ptr noundef %1)
  store ptr %call1, ptr %client_channel, align 8
  %2 = load ptr, ptr %client_channel, align 8
  %cmp = icmp eq ptr %2, null
  br i1 %cmp, label %if.then, label %if.end4

if.then:                                          ; preds = %entry
  %3 = load ptr, ptr %channel, align 8
  %call2 = call noundef zeroext i1 @_ZN9grpc_core12_GLOBAL__N_113IsLameChannelEPNS_7ChannelE(ptr noundef %3)
  br i1 %call2, label %if.end, label %if.then3

if.then3:                                         ; preds = %if.then
  call void (ptr, i32, i32, ptr, ...) @gpr_log(ptr noundef @.str, i32 noundef 90, i32 noundef 2, ptr noundef @.str.3)
  br label %if.end

if.end:                                           ; preds = %if.then3, %if.then
  store i32 0, ptr %retval, align 4
  br label %return

if.end4:                                          ; preds = %entry
  %4 = load ptr, ptr %client_channel, align 8
  %call5 = call noundef i32 @_ZNK9grpc_core13ClientChannel31NumExternalConnectivityWatchersEv(ptr noundef nonnull align 8 dereferenceable(616) %4)
  store i32 %call5, ptr %retval, align 4
  br label %return

return:                                           ; preds = %if.end4, %if.end
  %5 = load i32, ptr %retval, align 4
  ret i32 %5
}