; Function Attrs: mustprogress uwtable
define i32 @grpc_channel_num_external_connectivity_watchers(ptr noundef %c_channel) local_unnamed_addr #5 personality ptr @__gxx_personality_v0 {
entry:
  %call1 = tail call noundef ptr @_ZN9grpc_core13ClientChannel14GetFromChannelEPNS_7ChannelE(ptr noundef %c_channel)
  %cmp = icmp eq ptr %call1, null
  br i1 %cmp, label %if.then, label %if.end4

if.then:                                          ; preds = %entry
  %0 = getelementptr i8, ptr %c_channel, i64 168
  %call.val = load ptr, ptr %0, align 8
  %call1.i = tail call noundef ptr @_Z31grpc_channel_stack_last_elementP18grpc_channel_stack(ptr noundef %call.val)
  %1 = load ptr, ptr %call1.i, align 8
  %cmp.i = icmp eq ptr %1, @_ZN9grpc_core16LameClientFilter7kFilterE
  br i1 %cmp.i, label %return, label %if.then3

if.then3:                                         ; preds = %if.then
  tail call void (ptr, i32, i32, ptr, ...) @gpr_log(ptr noundef nonnull @.str, i32 noundef 90, i32 noundef 2, ptr noundef nonnull @.str.3)
  br label %return

if.end4:                                          ; preds = %entry
  %external_watchers_mu_.i = getelementptr inbounds i8, ptr %call1, i64 560
  tail call void @_ZN4absl12lts_202308025Mutex4LockEv(ptr noundef nonnull align 8 dereferenceable(8) %external_watchers_mu_.i)
  %_M_node_count.i.i.i = getelementptr inbounds i8, ptr %call1, i64 608
  %2 = load i64, ptr %_M_node_count.i.i.i, align 8
  invoke void @_ZN4absl12lts_202308025Mutex6UnlockEv(ptr noundef nonnull align 8 dereferenceable(8) %external_watchers_mu_.i)
          to label %_ZNK9grpc_core13ClientChannel31NumExternalConnectivityWatchersEv.exit unwind label %terminate.lpad.i.i

terminate.lpad.i.i:                               ; preds = %if.end4
  %3 = landingpad { ptr, i32 }
          catch ptr null
  %4 = extractvalue { ptr, i32 } %3, 0
  tail call void @__clang_call_terminate(ptr %4) #19
  unreachable

_ZNK9grpc_core13ClientChannel31NumExternalConnectivityWatchersEv.exit: ; preds = %if.end4
  %conv.i = trunc i64 %2 to i32
  br label %return

return:                                           ; preds = %if.then, %if.then3, %_ZNK9grpc_core13ClientChannel31NumExternalConnectivityWatchersEv.exit
  %retval.0 = phi i32 [ %conv.i, %_ZNK9grpc_core13ClientChannel31NumExternalConnectivityWatchersEv.exit ], [ 0, %if.then3 ], [ 0, %if.then ]
  ret i32 %retval.0
}